(dp0
S'labels'
p1
(lp2
S'brush_hair'
p3
aS'catch'
p4
aS'clap'
p5
aS'climb_stairs'
p6
aS'golf'
p7
aS'jump'
p8
aS'kick_ball'
p9
aS'pick'
p10
aS'pour'
p11
aS'pullup'
p12
aS'push'
p13
aS'run'
p14
aS'shoot_ball'
p15
aS'shoot_bow'
p16
aS'shoot_gun'
p17
aS'sit'
p18
aS'stand'
p19
aS'swing_baseball'
p20
aS'throw'
p21
aS'walk'
p22
aS'wave'
p23
asS'gttubes'
p24
(lp25
sS'nframes'
p26
(dp27
S'walk/kestrel'
p28
I450
ssS'train_videos'
p29
(lp30
sS'test_videos'
p31
(lp32
(lp33
g28
aasS'resolution'
p34
(dp35
g28
(I240
I360
tp36
ss.